(dp0
S'./source_temp/HarryPotter5UmbridgesSpeechkgIihUN4CCI.mp4'
p1
I01
sS'./source_temp/TheMartianHydrazineScene4PZ0Ydwx7xA.mp4'
p2
I01
sS'./source_temp/SokoviaAccordsDebateCaptainAmericaCivilWar2016MovieClips5jrdHASx04.mp4'
p3
I01
sS'./source_temp/KungFuPandaDragonWarriorSelectionsiguNvm0so0.mp4'
p4
I01
sS'./source_temp/WhySoSerious.mp4'
p5
I01
sS'./source_temp/CruellareceivesJoyfulNews101Dalmatians19967A94m2nT9Us.mp4'
p6
I01
sS'./source_temp/TonyStarkRecruitsSpiderManCaptainAmericaCivilWar2016MovieClip4J8CR7Qg4xg.mp4'
p7
I01
sS'./source_temp/Wearegoingtosteal.....theMOONym6OHT0CZY.mp4'
p8
I01
sS'./source_temp/TheAVENGERSWereATimeBombStarkvsRogersHDO7cF6vMfhR4.mp4'
p9
I01
sS'./source_temp/BestPenguinsofMadagascarsceneshUFVPVuak.mp4'
p10
I01
sS'./source_temp/TheAvengersWehaveaHulksceneW3GF1x0VX0.mp4'
p11
I01
sS'./source_temp/MrPotter...ournewcelebrity...brDO1mx4SUo.mp4'
p12
I01
sS'./source_temp/TheFaultInOurStarsIminLoveWithYou9KwagoQefZ0.mp4'
p13
I01
sS'./source_temp/MasterYodaQuoteFEARStarWarsIThePhantomMenace199991G8iaokk8.mp4'
p14
I01
sS'./source_temp/FamousSpeechesAragornattheBlackGateEXGUNvIFTQw.mp4'
p15
I01
sS'./source_temp/Zootopia2016HoppsFinalMonologue3dSIPI47X3E.mp4'
p16
I01
sS'./source_temp/25BestJokerQuotes.S6PGusNTH8.mp4'
p17
I01
sS'./source_temp/RhodeyFallsSceneCaptainAmericaCivilWar2016IMAXMovieClipKGa4rEACCI.mp4'
p18
I01
sS'./source_temp/100GreatestStarWarsQuotesAqFmaTpxig.mp4'
p19
I01
sS'./source_temp/IncrediblesMonologueiRlhw6uRds.mp4'
p20
I01
sS'./source_temp/AvengersSuitUpSceneTheAvengers2012MovieClipuQFUBcqdSKE.mp4'
p21
I01
sS'./source_temp/UltronBestLinesMomentshI9GyhX7yHM.mp4'
p22
I01
sS'./source_temp/TheLionKing3DMorningLessonWithMufasaOfficialDisneyMovieClipbW7PlTaawfQ.mp4'
p23
I01
sS'./source_temp/25greatbatmanquoteschristianbaleruWSdSMYu4.mp4'
p24
I01
sS'./source_temp/ShifutrustsOogwayAgJ8S7D38pw.mp4'
p25
I01
sS'./source_temp/TOP10LinesinTheAvengers2012KZk8A8xqEVI.mp4'
p26
I01
sS'./source_temp/BestFavoriteLordoftheRingsQuotesWorthfightingforSamsSpeechSubtitlesHDvdrOueZ3g2c.mp4'
p27
I01
sS'./source_temp/doryandmarlinEXrAYOxfI3A.mp4'
p28
I01
sS'./source_temp/DreamWorksPENGUINSOFMADAGASCARPenguinsAntarcticDocumentaryInternationalEnglish1ykfWUCFDQ.mp4'
p29
I01
sS'./source_temp/AirportArgumentSceneCaptainAmericaCivilWar2016IMAXMovieClipKe0YmPij608.mp4'
p30
I01
sS'./source_temp/KungFuPandaOogwayAscendshYAQtEs2Img.mp4'
p31
I01
sS'./source_temp/RATATOUILLERemyexperiencingfoodascolourshapeandsouVXoJjgxMj9M.mp4'
p32
I01
sS'./source_temp/BestofCaptainJackSparrowPart2AwUey0GgQQQ.mp4'
p33
I01
sS'./source_temp/25greatcaptainjacksparrowquotesmCDAmTQdU.mp4'
p34
I01
sS'./source_temp/DespicableMeSpeechMhsvHL8OoCE.mp4'
p35
I01
sS'./source_temp/KungFuPanda2Innerpeace8lAKfUD169U.mp4'
p36
I01
sS'./source_temp/BEST10DARTHVADERQUOTESGAk1pomfEFg.mp4'
p37
I01
sS'./source_temp/WreckItRalphRalphsIntroductionlOQyA6CjcE.mp4'
p38
I01
sS'./source_temp/MasterOogwaysAwesomesayingNq8loZlpa8.mp4'
p39
I01
sS'./source_temp/BEST10MASTERYODAQUOTESmlRTWxRNr1w.mp4'
p40
I01
sS'./source_temp/ItstheGreatPumpkinCharlieBrownSallysRantYOUBLOCKHEAD7ushQmMSqw.mp4'
p41
I01
s.