(dp0
S'./source/Wreck_It_Ralph_Ralphs_Introduction_lOQyA6Cj_cE.mp4'
p1
I01
sS'./source/Best__Favorite_Lord_of_the_Rings_Quotes___Worth_fighting_for_(Sams_Speech_+_Subtitles_+_HD)_vdrOueZ3g2c.mp4'
p2
I01
sS'./source/dory_and_marlin_EXrAYOxfI3A.mp4'
p3
I01
sS'./source/We_are_going_to_steal....._the_MOON__ym6OHT0CZY.mp4'
p4
I01
sS'./source/Famous_Speeches___Aragorn_at_the_Black_Gate_EXGUNvIFTQw.mp4'
p5
I01
sS'./source/The_Martian_Hydrazine_Scene_4PZ0Ydwx7xA.mp4'
p6
I01
sS'./source/Best_of_Captain_Jack_Sparrow_Part_2_AwUey0GgQQQ.mp4'
p7
I01
sS'./source/25_great_captain_jack_sparrow_quotes_mCDA_m_TQdU.mp4'
p8
I01
sS'./source/25_great_batman_quotes_(christian_bale)_ruWS_dSMYu4.mp4'
p9
I01
sS'./source/Zootopia_(2016)___Hopps_Final_Monologue_3dSIPI47X3E.mp4'
p10
I01
sS'./source/The_Fault_In_Our_Stars_Im_in_Love_With_You_9KwagoQefZ0.mp4'
p11
I01
sS'./source/Mr_Potter...our_new_celebrity..._brDO1mx4SUo.mp4'
p12
I01
s.