(dp0
F0.25
(lp1
S'./Cars_2006_movie_Clip_2_Wq42WBvIofU0_0.25.mp4'
p2
aS'./Cars_2006_movie_Clip_2_Wq42WBvIofU1_0.25.mp4'
p3
aS'./Cars_2006_movie_Clip_2_Wq42WBvIofU2_0.25.mp4'
p4
aS'./Cars_2006_movie_Clip_2_Wq42WBvIofU3_0.25.mp4'
p5
aS'./Cars_2006_movie_Clip_2_Wq42WBvIofU4_0.25.mp4'
p6
aS'./Cars_2006_movie_Clip_2_Wq42WBvIofU5_0.25.mp4'
p7
aS'./Cars_2006_movie_Clip_2_Wq42WBvIofU6_0.25.mp4'
p8
aS'./Cars_2006_movie_Clip_2_Wq42WBvIofU7_0.25.mp4'
p9
aS'./Cars_2006_movie_Clip_2_Wq42WBvIofU8_0.25.mp4'
p10
aS'./Cars_2006_movie_Clip_2_Wq42WBvIofU9_0.25.mp4'
p11
aS'./Cars_2006_movie_Clip_2_Wq42WBvIofU10_0.25.mp4'
p12
aS'./Cars_2006_movie_Clip_2_Wq42WBvIofU11_0.25.mp4'
p13
aS'./Cars_2006_movie_Clip_2_Wq42WBvIofU12_0.25.mp4'
p14
aS'./Cars_2006_movie_Clip_2_Wq42WBvIofU13_0.25.mp4'
p15
aS'./Cars_2006_movie_Clip_2_Wq42WBvIofU14_0.25.mp4'
p16
aS'./Cars_2006_movie_Clip_2_Wq42WBvIofU15_0.25.mp4'
p17
aS'./Cars_2006_movie_Clip_2_Wq42WBvIofU16_0.25.mp4'
p18
aS'./Cars_2006_movie_Clip_2_Wq42WBvIofU17_0.25.mp4'
p19
aS'./Cars_2006_movie_Clip_2_Wq42WBvIofU18_0.25.mp4'
p20
aS'./Cars_2006_movie_Clip_2_Wq42WBvIofU19_0.25.mp4'
p21
aS'./Cars_2006_movie_Clip_2_Wq42WBvIofU20_0.25.mp4'
p22
aS'./Cars_2006_movie_Clip_2_Wq42WBvIofU21_0.25.mp4'
p23
aS'./Cars_2006_movie_Clip_2_Wq42WBvIofU22_0.25.mp4'
p24
aS'./Cars_2006_movie_Clip_2_Wq42WBvIofU23_0.25.mp4'
p25
aS'./Cars_2006_movie_Clip_2_Wq42WBvIofU24_0.25.mp4'
p26
aS'./Cars_2006_movie_Clip_2_Wq42WBvIofU25_0.25.mp4'
p27
aS'./Cars_2006_movie_Clip_2_Wq42WBvIofU26_0.25.mp4'
p28
aS'./Cars_2006_movie_Clip_2_Wq42WBvIofU27_0.25.mp4'
p29
aS'./Cars_2006_movie_Clip_2_Wq42WBvIofU28_0.25.mp4'
p30
aS'./Cars_2006_movie_Clip_2_Wq42WBvIofU29_0.25.mp4'
p31
aS'./Cars_2006_movie_Clip_2_Wq42WBvIofU30_0.25.mp4'
p32
aS'./Cars_2006_movie_Clip_2_Wq42WBvIofU31_0.25.mp4'
p33
aS'./Cars_2006_movie_Clip_2_Wq42WBvIofU32_0.25.mp4'
p34
aS'./Cars_2006_movie_Clip_2_Wq42WBvIofU33_0.25.mp4'
p35
aS'./Cars_2006_movie_Clip_2_Wq42WBvIofU34_0.25.mp4'
p36
aS'./Cars_2006_movie_Clip_2_Wq42WBvIofU35_0.25.mp4'
p37
aS'./Cars_2006_movie_Clip_2_Wq42WBvIofU36_0.25.mp4'
p38
aS'./Cars_2006_movie_Clip_2_Wq42WBvIofU37_0.25.mp4'
p39
aS'./Cars_2006_movie_Clip_2_Wq42WBvIofU38_0.25.mp4'
p40
aS'./Cars_2006_movie_Clip_2_Wq42WBvIofU39_0.25.mp4'
p41
aS'./Cars_2006_movie_Clip_2_Wq42WBvIofU40_0.25.mp4'
p42
aS'./Cars_2006_movie_Clip_2_Wq42WBvIofU41_0.25.mp4'
p43
aS'./Cars_2006_movie_Clip_2_Wq42WBvIofU42_0.25.mp4'
p44
aS'./Cars_2006_movie_Clip_2_Wq42WBvIofU43_0.25.mp4'
p45
aS'./Cars_2006_movie_Clip_2_Wq42WBvIofU44_0.25.mp4'
p46
aS'./Cars_2006_movie_Clip_2_Wq42WBvIofU45_0.25.mp4'
p47
aS'./Cars_2006_movie_Clip_2_Wq42WBvIofU46_0.25.mp4'
p48
aS'./Cars_2006_movie_Clip_2_Wq42WBvIofU47_0.25.mp4'
p49
aS'./Master_Oogways_Awesome_saying_Nq8loZlpa_80_0.25.mp4'
p50
aS'./Master_Oogways_Awesome_saying_Nq8loZlpa_81_0.25.mp4'
p51
aS'./Master_Oogways_Awesome_saying_Nq8loZlpa_82_0.25.mp4'
p52
aS'./Master_Oogways_Awesome_saying_Nq8loZlpa_83_0.25.mp4'
p53
aS'./Master_Oogways_Awesome_saying_Nq8loZlpa_84_0.25.mp4'
p54
aS'./Master_Oogways_Awesome_saying_Nq8loZlpa_85_0.25.mp4'
p55
aS'./Master_Oogways_Awesome_saying_Nq8loZlpa_86_0.25.mp4'
p56
aS'./Master_Oogways_Awesome_saying_Nq8loZlpa_87_0.25.mp4'
p57
aS'./Master_Oogways_Awesome_saying_Nq8loZlpa_88_0.25.mp4'
p58
aS'./Master_Oogways_Awesome_saying_Nq8loZlpa_89_0.25.mp4'
p59
aS'./Master_Oogways_Awesome_saying_Nq8loZlpa_810_0.25.mp4'
p60
aS'./Master_Oogways_Awesome_saying_Nq8loZlpa_811_0.25.mp4'
p61
aS'./Master_Oogways_Awesome_saying_Nq8loZlpa_812_0.25.mp4'
p62
aS'./Master_Oogways_Awesome_saying_Nq8loZlpa_813_0.25.mp4'
p63
aS'./Master_Oogways_Awesome_saying_Nq8loZlpa_814_0.25.mp4'
p64
aS'./Master_Oogways_Awesome_saying_Nq8loZlpa_815_0.25.mp4'
p65
aS'./Master_Oogways_Awesome_saying_Nq8loZlpa_816_0.25.mp4'
p66
aS'./Master_Oogways_Awesome_saying_Nq8loZlpa_817_0.25.mp4'
p67
aS'./Master_Oogways_Awesome_saying_Nq8loZlpa_818_0.25.mp4'
p68
aS'./Master_Oogways_Awesome_saying_Nq8loZlpa_819_0.25.mp4'
p69
aS'./Master_Oogways_Awesome_saying_Nq8loZlpa_820_0.25.mp4'
p70
aS'./Master_Oogways_Awesome_saying_Nq8loZlpa_821_0.25.mp4'
p71
aS'./Master_Oogways_Awesome_saying_Nq8loZlpa_822_0.25.mp4'
p72
aS'./Master_Oogways_Awesome_saying_Nq8loZlpa_823_0.25.mp4'
p73
aS'./Master_Oogways_Awesome_saying_Nq8loZlpa_824_0.25.mp4'
p74
aS'./Master_Oogways_Awesome_saying_Nq8loZlpa_825_0.25.mp4'
p75
aS'./Master_Oogways_Awesome_saying_Nq8loZlpa_826_0.25.mp4'
p76
aS'./Master_Oogways_Awesome_saying_Nq8loZlpa_827_0.25.mp4'
p77
aS'./Master_Oogways_Awesome_saying_Nq8loZlpa_828_0.25.mp4'
p78
aS'./Master_Oogways_Awesome_saying_Nq8loZlpa_829_0.25.mp4'
p79
aS'./Master_Oogways_Awesome_saying_Nq8loZlpa_830_0.25.mp4'
p80
aS'./Master_Oogways_Awesome_saying_Nq8loZlpa_831_0.25.mp4'
p81
aS'./Master_Oogways_Awesome_saying_Nq8loZlpa_832_0.25.mp4'
p82
aS'./Master_Oogways_Awesome_saying_Nq8loZlpa_833_0.25.mp4'
p83
aS'./Master_Oogways_Awesome_saying_Nq8loZlpa_834_0.25.mp4'
p84
aS'./Master_Oogways_Awesome_saying_Nq8loZlpa_835_0.25.mp4'
p85
aS'./Master_Oogways_Awesome_saying_Nq8loZlpa_836_0.25.mp4'
p86
aS'./Master_Oogways_Awesome_saying_Nq8loZlpa_837_0.25.mp4'
p87
aS'./Master_Oogways_Awesome_saying_Nq8loZlpa_838_0.25.mp4'
p88
aS'./Master_Oogways_Awesome_saying_Nq8loZlpa_839_0.25.mp4'
p89
aS'./Master_Oogways_Awesome_saying_Nq8loZlpa_840_0.25.mp4'
p90
aS'./Master_Oogways_Awesome_saying_Nq8loZlpa_841_0.25.mp4'
p91
aS'./Master_Oogways_Awesome_saying_Nq8loZlpa_842_0.25.mp4'
p92
aS'./Master_Oogways_Awesome_saying_Nq8loZlpa_843_0.25.mp4'
p93
aS'./Master_Oogways_Awesome_saying_Nq8loZlpa_844_0.25.mp4'
p94
aS'./Master_Oogways_Awesome_saying_Nq8loZlpa_845_0.25.mp4'
p95
aS'./Master_Oogways_Awesome_saying_Nq8loZlpa_846_0.25.mp4'
p96
aS'./Master_Oogways_Awesome_saying_Nq8loZlpa_847_0.25.mp4'
p97
aS'./Master_Oogways_Awesome_saying_Nq8loZlpa_848_0.25.mp4'
p98
aS'./Master_Oogways_Awesome_saying_Nq8loZlpa_849_0.25.mp4'
p99
aS'./Master_Oogways_Awesome_saying_Nq8loZlpa_850_0.25.mp4'
p100
aS'./Master_Oogways_Awesome_saying_Nq8loZlpa_851_0.25.mp4'
p101
aS'./Master_Oogways_Awesome_saying_Nq8loZlpa_852_0.25.mp4'
p102
aS'./Master_Oogways_Awesome_saying_Nq8loZlpa_853_0.25.mp4'
p103
aS'./Master_Oogways_Awesome_saying_Nq8loZlpa_854_0.25.mp4'
p104
aS'./Master_Oogways_Awesome_saying_Nq8loZlpa_855_0.25.mp4'
p105
aS'./Master_Oogways_Awesome_saying_Nq8loZlpa_856_0.25.mp4'
p106
aS'./Master_Oogways_Awesome_saying_Nq8loZlpa_857_0.25.mp4'
p107
aS'./Master_Oogways_Awesome_saying_Nq8loZlpa_858_0.25.mp4'
p108
aS'./Master_Oogways_Awesome_saying_Nq8loZlpa_859_0.25.mp4'
p109
aS'./Master_Oogways_Awesome_saying_Nq8loZlpa_860_0.25.mp4'
p110
aS'./Master_Oogways_Awesome_saying_Nq8loZlpa_861_0.25.mp4'
p111
aS'./Master_Oogways_Awesome_saying_Nq8loZlpa_862_0.25.mp4'
p112
aS'./Master_Oogways_Awesome_saying_Nq8loZlpa_863_0.25.mp4'
p113
aS'./Master_Oogways_Awesome_saying_Nq8loZlpa_864_0.25.mp4'
p114
aS'./Master_Oogways_Awesome_saying_Nq8loZlpa_865_0.25.mp4'
p115
aS'./Master_Oogways_Awesome_saying_Nq8loZlpa_866_0.25.mp4'
p116
aS'./Master_Oogways_Awesome_saying_Nq8loZlpa_867_0.25.mp4'
p117
aS'./Master_Oogways_Awesome_saying_Nq8loZlpa_868_0.25.mp4'
p118
aS'./Master_Oogways_Awesome_saying_Nq8loZlpa_869_0.25.mp4'
p119
aS'./Master_Oogways_Awesome_saying_Nq8loZlpa_870_0.25.mp4'
p120
aS'./Master_Oogways_Awesome_saying_Nq8loZlpa_871_0.25.mp4'
p121
aS'./Master_Oogways_Awesome_saying_Nq8loZlpa_872_0.25.mp4'
p122
aS'./Master_Oogways_Awesome_saying_Nq8loZlpa_873_0.25.mp4'
p123
aS'./Master_Oogways_Awesome_saying_Nq8loZlpa_874_0.25.mp4'
p124
aS'./Master_Oogways_Awesome_saying_Nq8loZlpa_875_0.25.mp4'
p125
aS'./Master_Oogways_Awesome_saying_Nq8loZlpa_876_0.25.mp4'
p126
aS'./Master_Oogways_Awesome_saying_Nq8loZlpa_877_0.25.mp4'
p127
aS'./Master_Oogways_Awesome_saying_Nq8loZlpa_878_0.25.mp4'
p128
aS'./Master_Oogways_Awesome_saying_Nq8loZlpa_879_0.25.mp4'
p129
aS'./Master_Oogways_Awesome_saying_Nq8loZlpa_880_0.25.mp4'
p130
aS'./Master_Oogways_Awesome_saying_Nq8loZlpa_881_0.25.mp4'
p131
aS'./Master_Oogways_Awesome_saying_Nq8loZlpa_882_0.25.mp4'
p132
aS'./Master_Oogways_Awesome_saying_Nq8loZlpa_883_0.25.mp4'
p133
aS'./Master_Oogways_Awesome_saying_Nq8loZlpa_884_0.25.mp4'
p134
aS'./Master_Oogways_Awesome_saying_Nq8loZlpa_885_0.25.mp4'
p135
aS'./Master_Oogways_Awesome_saying_Nq8loZlpa_886_0.25.mp4'
p136
aS'./Master_Oogways_Awesome_saying_Nq8loZlpa_887_0.25.mp4'
p137
aS'./Master_Oogways_Awesome_saying_Nq8loZlpa_888_0.25.mp4'
p138
aS'./Master_Oogways_Awesome_saying_Nq8loZlpa_889_0.25.mp4'
p139
aS'./Despicable_Me_Gru_Sets_Some_Ground_Rules_CeOsRggJO4s0_0.25.mp4'
p140
aS'./Despicable_Me_Gru_Sets_Some_Ground_Rules_CeOsRggJO4s1_0.25.mp4'
p141
aS'./Despicable_Me_Gru_Sets_Some_Ground_Rules_CeOsRggJO4s2_0.25.mp4'
p142
aS'./Despicable_Me_Gru_Sets_Some_Ground_Rules_CeOsRggJO4s3_0.25.mp4'
p143
aS'./Despicable_Me_Gru_Sets_Some_Ground_Rules_CeOsRggJO4s4_0.25.mp4'
p144
aS'./Despicable_Me_Gru_Sets_Some_Ground_Rules_CeOsRggJO4s5_0.25.mp4'
p145
aS'./Despicable_Me_Gru_Sets_Some_Ground_Rules_CeOsRggJO4s6_0.25.mp4'
p146
aS'./Despicable_Me_Gru_Sets_Some_Ground_Rules_CeOsRggJO4s7_0.25.mp4'
p147
aS'./Despicable_Me_Gru_Sets_Some_Ground_Rules_CeOsRggJO4s8_0.25.mp4'
p148
aS'./Despicable_Me_Gru_Sets_Some_Ground_Rules_CeOsRggJO4s9_0.25.mp4'
p149
aS'./Despicable_Me_Gru_Sets_Some_Ground_Rules_CeOsRggJO4s10_0.25.mp4'
p150
aS'./Despicable_Me_Gru_Sets_Some_Ground_Rules_CeOsRggJO4s11_0.25.mp4'
p151
aS'./Despicable_Me_Gru_Sets_Some_Ground_Rules_CeOsRggJO4s12_0.25.mp4'
p152
aS'./Despicable_Me_Gru_Sets_Some_Ground_Rules_CeOsRggJO4s13_0.25.mp4'
p153
aS'./Despicable_Me_Gru_Sets_Some_Ground_Rules_CeOsRggJO4s14_0.25.mp4'
p154
aS'./Despicable_Me_Gru_Sets_Some_Ground_Rules_CeOsRggJO4s15_0.25.mp4'
p155
aS'./Despicable_Me_Gru_Sets_Some_Ground_Rules_CeOsRggJO4s16_0.25.mp4'
p156
aS'./Despicable_Me_Gru_Sets_Some_Ground_Rules_CeOsRggJO4s17_0.25.mp4'
p157
aS'./Despicable_Me_Gru_Sets_Some_Ground_Rules_CeOsRggJO4s18_0.25.mp4'
p158
aS'./Despicable_Me_Gru_Sets_Some_Ground_Rules_CeOsRggJO4s19_0.25.mp4'
p159
aS'./Despicable_Me_Gru_Sets_Some_Ground_Rules_CeOsRggJO4s20_0.25.mp4'
p160
aS'./Despicable_Me_Gru_Sets_Some_Ground_Rules_CeOsRggJO4s21_0.25.mp4'
p161
aS'./Despicable_Me_Gru_Sets_Some_Ground_Rules_CeOsRggJO4s22_0.25.mp4'
p162
aS'./Despicable_Me_Gru_Sets_Some_Ground_Rules_CeOsRggJO4s23_0.25.mp4'
p163
aS'./Despicable_Me_Gru_Sets_Some_Ground_Rules_CeOsRggJO4s24_0.25.mp4'
p164
aS'./Despicable_Me_Gru_Sets_Some_Ground_Rules_CeOsRggJO4s25_0.25.mp4'
p165
aS'./Despicable_Me_Gru_Sets_Some_Ground_Rules_CeOsRggJO4s26_0.25.mp4'
p166
aS'./Despicable_Me_Gru_Sets_Some_Ground_Rules_CeOsRggJO4s27_0.25.mp4'
p167
aS'./Despicable_Me_Gru_Sets_Some_Ground_Rules_CeOsRggJO4s28_0.25.mp4'
p168
aS'./Despicable_Me_Gru_Sets_Some_Ground_Rules_CeOsRggJO4s29_0.25.mp4'
p169
aS'./Despicable_Me_Gru_Sets_Some_Ground_Rules_CeOsRggJO4s30_0.25.mp4'
p170
aS'./Despicable_Me_Gru_Sets_Some_Ground_Rules_CeOsRggJO4s31_0.25.mp4'
p171
aS'./Despicable_Me_Gru_Sets_Some_Ground_Rules_CeOsRggJO4s32_0.25.mp4'
p172
aS'./Despicable_Me_Gru_Sets_Some_Ground_Rules_CeOsRggJO4s33_0.25.mp4'
p173
aS'./Despicable_Me_Gru_Sets_Some_Ground_Rules_CeOsRggJO4s34_0.25.mp4'
p174
aS'./Despicable_Me_Gru_Sets_Some_Ground_Rules_CeOsRggJO4s35_0.25.mp4'
p175
aS'./Despicable_Me_Gru_Sets_Some_Ground_Rules_CeOsRggJO4s36_0.25.mp4'
p176
aS'./Despicable_Me_Gru_Sets_Some_Ground_Rules_CeOsRggJO4s37_0.25.mp4'
p177
aS'./Despicable_Me_Gru_Sets_Some_Ground_Rules_CeOsRggJO4s38_0.25.mp4'
p178
aS'./Despicable_Me_Gru_Sets_Some_Ground_Rules_CeOsRggJO4s39_0.25.mp4'
p179
aS'./Despicable_Me_Gru_Sets_Some_Ground_Rules_CeOsRggJO4s40_0.25.mp4'
p180
aS'./Despicable_Me_Gru_Sets_Some_Ground_Rules_CeOsRggJO4s41_0.25.mp4'
p181
aS'./Despicable_Me_Gru_Sets_Some_Ground_Rules_CeOsRggJO4s42_0.25.mp4'
p182
aS'./Despicable_Me_Gru_Sets_Some_Ground_Rules_CeOsRggJO4s43_0.25.mp4'
p183
aS'./Despicable_Me_Gru_Sets_Some_Ground_Rules_CeOsRggJO4s44_0.25.mp4'
p184
aS'./Despicable_Me_Gru_Sets_Some_Ground_Rules_CeOsRggJO4s45_0.25.mp4'
p185
aS'./Despicable_Me_Gru_Sets_Some_Ground_Rules_CeOsRggJO4s46_0.25.mp4'
p186
aS'./Despicable_Me_Gru_Sets_Some_Ground_Rules_CeOsRggJO4s47_0.25.mp4'
p187
aS'./Despicable_Me_Gru_Sets_Some_Ground_Rules_CeOsRggJO4s48_0.25.mp4'
p188
aS'./Despicable_Me_Gru_Sets_Some_Ground_Rules_CeOsRggJO4s49_0.25.mp4'
p189
asF0.5
(lp190
S'./Cars_2006_movie_Clip_2_Wq42WBvIofU48_0.5.mp4'
p191
aS'./Cars_2006_movie_Clip_2_Wq42WBvIofU49_0.5.mp4'
p192
aS'./Cars_2006_movie_Clip_2_Wq42WBvIofU50_0.5.mp4'
p193
aS'./Cars_2006_movie_Clip_2_Wq42WBvIofU51_0.5.mp4'
p194
aS'./Cars_2006_movie_Clip_2_Wq42WBvIofU52_0.5.mp4'
p195
aS'./Cars_2006_movie_Clip_2_Wq42WBvIofU53_0.5.mp4'
p196
aS'./Cars_2006_movie_Clip_2_Wq42WBvIofU54_0.5.mp4'
p197
aS'./Cars_2006_movie_Clip_2_Wq42WBvIofU55_0.5.mp4'
p198
aS'./Cars_2006_movie_Clip_2_Wq42WBvIofU56_0.5.mp4'
p199
aS'./Cars_2006_movie_Clip_2_Wq42WBvIofU57_0.5.mp4'
p200
aS'./Cars_2006_movie_Clip_2_Wq42WBvIofU58_0.5.mp4'
p201
aS'./Cars_2006_movie_Clip_2_Wq42WBvIofU59_0.5.mp4'
p202
aS'./Cars_2006_movie_Clip_2_Wq42WBvIofU60_0.5.mp4'
p203
aS'./Cars_2006_movie_Clip_2_Wq42WBvIofU61_0.5.mp4'
p204
aS'./Cars_2006_movie_Clip_2_Wq42WBvIofU62_0.5.mp4'
p205
aS'./Cars_2006_movie_Clip_2_Wq42WBvIofU63_0.5.mp4'
p206
aS'./Cars_2006_movie_Clip_2_Wq42WBvIofU64_0.5.mp4'
p207
aS'./Cars_2006_movie_Clip_2_Wq42WBvIofU65_0.5.mp4'
p208
aS'./Cars_2006_movie_Clip_2_Wq42WBvIofU66_0.5.mp4'
p209
aS'./Cars_2006_movie_Clip_2_Wq42WBvIofU67_0.5.mp4'
p210
aS'./Cars_2006_movie_Clip_2_Wq42WBvIofU68_0.5.mp4'
p211
aS'./Cars_2006_movie_Clip_2_Wq42WBvIofU69_0.5.mp4'
p212
aS'./Cars_2006_movie_Clip_2_Wq42WBvIofU70_0.5.mp4'
p213
aS'./Cars_2006_movie_Clip_2_Wq42WBvIofU71_0.5.mp4'
p214
aS'./Master_Oogways_Awesome_saying_Nq8loZlpa_890_0.5.mp4'
p215
aS'./Master_Oogways_Awesome_saying_Nq8loZlpa_891_0.5.mp4'
p216
aS'./Master_Oogways_Awesome_saying_Nq8loZlpa_892_0.5.mp4'
p217
aS'./Master_Oogways_Awesome_saying_Nq8loZlpa_893_0.5.mp4'
p218
aS'./Master_Oogways_Awesome_saying_Nq8loZlpa_894_0.5.mp4'
p219
aS'./Master_Oogways_Awesome_saying_Nq8loZlpa_895_0.5.mp4'
p220
aS'./Master_Oogways_Awesome_saying_Nq8loZlpa_896_0.5.mp4'
p221
aS'./Master_Oogways_Awesome_saying_Nq8loZlpa_897_0.5.mp4'
p222
aS'./Master_Oogways_Awesome_saying_Nq8loZlpa_898_0.5.mp4'
p223
aS'./Master_Oogways_Awesome_saying_Nq8loZlpa_899_0.5.mp4'
p224
aS'./Master_Oogways_Awesome_saying_Nq8loZlpa_8100_0.5.mp4'
p225
aS'./Master_Oogways_Awesome_saying_Nq8loZlpa_8101_0.5.mp4'
p226
aS'./Master_Oogways_Awesome_saying_Nq8loZlpa_8102_0.5.mp4'
p227
aS'./Master_Oogways_Awesome_saying_Nq8loZlpa_8103_0.5.mp4'
p228
aS'./Master_Oogways_Awesome_saying_Nq8loZlpa_8104_0.5.mp4'
p229
aS'./Master_Oogways_Awesome_saying_Nq8loZlpa_8105_0.5.mp4'
p230
aS'./Master_Oogways_Awesome_saying_Nq8loZlpa_8106_0.5.mp4'
p231
aS'./Master_Oogways_Awesome_saying_Nq8loZlpa_8107_0.5.mp4'
p232
aS'./Master_Oogways_Awesome_saying_Nq8loZlpa_8108_0.5.mp4'
p233
aS'./Master_Oogways_Awesome_saying_Nq8loZlpa_8109_0.5.mp4'
p234
aS'./Master_Oogways_Awesome_saying_Nq8loZlpa_8110_0.5.mp4'
p235
aS'./Master_Oogways_Awesome_saying_Nq8loZlpa_8111_0.5.mp4'
p236
aS'./Master_Oogways_Awesome_saying_Nq8loZlpa_8112_0.5.mp4'
p237
aS'./Master_Oogways_Awesome_saying_Nq8loZlpa_8113_0.5.mp4'
p238
aS'./Master_Oogways_Awesome_saying_Nq8loZlpa_8114_0.5.mp4'
p239
aS'./Master_Oogways_Awesome_saying_Nq8loZlpa_8115_0.5.mp4'
p240
aS'./Master_Oogways_Awesome_saying_Nq8loZlpa_8116_0.5.mp4'
p241
aS'./Master_Oogways_Awesome_saying_Nq8loZlpa_8117_0.5.mp4'
p242
aS'./Master_Oogways_Awesome_saying_Nq8loZlpa_8118_0.5.mp4'
p243
aS'./Master_Oogways_Awesome_saying_Nq8loZlpa_8119_0.5.mp4'
p244
aS'./Master_Oogways_Awesome_saying_Nq8loZlpa_8120_0.5.mp4'
p245
aS'./Master_Oogways_Awesome_saying_Nq8loZlpa_8121_0.5.mp4'
p246
aS'./Master_Oogways_Awesome_saying_Nq8loZlpa_8122_0.5.mp4'
p247
aS'./Master_Oogways_Awesome_saying_Nq8loZlpa_8123_0.5.mp4'
p248
aS'./Master_Oogways_Awesome_saying_Nq8loZlpa_8124_0.5.mp4'
p249
aS'./Master_Oogways_Awesome_saying_Nq8loZlpa_8125_0.5.mp4'
p250
aS'./Master_Oogways_Awesome_saying_Nq8loZlpa_8126_0.5.mp4'
p251
aS'./Master_Oogways_Awesome_saying_Nq8loZlpa_8127_0.5.mp4'
p252
aS'./Master_Oogways_Awesome_saying_Nq8loZlpa_8128_0.5.mp4'
p253
aS'./Master_Oogways_Awesome_saying_Nq8loZlpa_8129_0.5.mp4'
p254
aS'./Master_Oogways_Awesome_saying_Nq8loZlpa_8130_0.5.mp4'
p255
aS'./Master_Oogways_Awesome_saying_Nq8loZlpa_8131_0.5.mp4'
p256
aS'./Master_Oogways_Awesome_saying_Nq8loZlpa_8132_0.5.mp4'
p257
aS'./Master_Oogways_Awesome_saying_Nq8loZlpa_8133_0.5.mp4'
p258
aS'./Master_Oogways_Awesome_saying_Nq8loZlpa_8134_0.5.mp4'
p259
aS'./Despicable_Me_Gru_Sets_Some_Ground_Rules_CeOsRggJO4s50_0.5.mp4'
p260
aS'./Despicable_Me_Gru_Sets_Some_Ground_Rules_CeOsRggJO4s51_0.5.mp4'
p261
aS'./Despicable_Me_Gru_Sets_Some_Ground_Rules_CeOsRggJO4s52_0.5.mp4'
p262
aS'./Despicable_Me_Gru_Sets_Some_Ground_Rules_CeOsRggJO4s53_0.5.mp4'
p263
aS'./Despicable_Me_Gru_Sets_Some_Ground_Rules_CeOsRggJO4s54_0.5.mp4'
p264
aS'./Despicable_Me_Gru_Sets_Some_Ground_Rules_CeOsRggJO4s55_0.5.mp4'
p265
aS'./Despicable_Me_Gru_Sets_Some_Ground_Rules_CeOsRggJO4s56_0.5.mp4'
p266
aS'./Despicable_Me_Gru_Sets_Some_Ground_Rules_CeOsRggJO4s57_0.5.mp4'
p267
aS'./Despicable_Me_Gru_Sets_Some_Ground_Rules_CeOsRggJO4s58_0.5.mp4'
p268
aS'./Despicable_Me_Gru_Sets_Some_Ground_Rules_CeOsRggJO4s59_0.5.mp4'
p269
aS'./Despicable_Me_Gru_Sets_Some_Ground_Rules_CeOsRggJO4s60_0.5.mp4'
p270
aS'./Despicable_Me_Gru_Sets_Some_Ground_Rules_CeOsRggJO4s61_0.5.mp4'
p271
aS'./Despicable_Me_Gru_Sets_Some_Ground_Rules_CeOsRggJO4s62_0.5.mp4'
p272
aS'./Despicable_Me_Gru_Sets_Some_Ground_Rules_CeOsRggJO4s63_0.5.mp4'
p273
aS'./Despicable_Me_Gru_Sets_Some_Ground_Rules_CeOsRggJO4s64_0.5.mp4'
p274
aS'./Despicable_Me_Gru_Sets_Some_Ground_Rules_CeOsRggJO4s65_0.5.mp4'
p275
aS'./Despicable_Me_Gru_Sets_Some_Ground_Rules_CeOsRggJO4s66_0.5.mp4'
p276
aS'./Despicable_Me_Gru_Sets_Some_Ground_Rules_CeOsRggJO4s67_0.5.mp4'
p277
aS'./Despicable_Me_Gru_Sets_Some_Ground_Rules_CeOsRggJO4s68_0.5.mp4'
p278
aS'./Despicable_Me_Gru_Sets_Some_Ground_Rules_CeOsRggJO4s69_0.5.mp4'
p279
aS'./Despicable_Me_Gru_Sets_Some_Ground_Rules_CeOsRggJO4s70_0.5.mp4'
p280
aS'./Despicable_Me_Gru_Sets_Some_Ground_Rules_CeOsRggJO4s71_0.5.mp4'
p281
aS'./Despicable_Me_Gru_Sets_Some_Ground_Rules_CeOsRggJO4s72_0.5.mp4'
p282
aS'./Despicable_Me_Gru_Sets_Some_Ground_Rules_CeOsRggJO4s73_0.5.mp4'
p283
aS'./Despicable_Me_Gru_Sets_Some_Ground_Rules_CeOsRggJO4s74_0.5.mp4'
p284
asF2.0
(lp285
S'./Despicable_Me_Gru_Sets_Some_Ground_Rules_CeOsRggJO4s6_2.0.mp4'
p286
aS'./Despicable_Me_Gru_Sets_Some_Ground_Rules_CeOsRggJO4s7_2.0.mp4'
p287
aS'./Despicable_Me_Gru_Sets_Some_Ground_Rules_CeOsRggJO4s8_2.0.mp4'
p288
aS'./Despicable_Me_Gru_Sets_Some_Ground_Rules_CeOsRggJO4s9_2.0.mp4'
p289
aS'./Despicable_Me_Gru_Sets_Some_Ground_Rules_CeOsRggJO4s10_2.0.mp4'
p290
aS'./Despicable_Me_Gru_Sets_Some_Ground_Rules_CeOsRggJO4s11_2.0.mp4'
p291
aS'./Cars_2006_movie_Clip_2_Wq42WBvIofU6_2.0.mp4'
p292
aS'./Cars_2006_movie_Clip_2_Wq42WBvIofU7_2.0.mp4'
p293
aS'./Cars_2006_movie_Clip_2_Wq42WBvIofU8_2.0.mp4'
p294
aS'./Cars_2006_movie_Clip_2_Wq42WBvIofU9_2.0.mp4'
p295
aS'./Cars_2006_movie_Clip_2_Wq42WBvIofU10_2.0.mp4'
p296
aS'./Cars_2006_movie_Clip_2_Wq42WBvIofU11_2.0.mp4'
p297
aS'./Master_Oogways_Awesome_saying_Nq8loZlpa_86_2.0.mp4'
p298
aS'./Master_Oogways_Awesome_saying_Nq8loZlpa_87_2.0.mp4'
p299
aS'./Master_Oogways_Awesome_saying_Nq8loZlpa_88_2.0.mp4'
p300
aS'./Master_Oogways_Awesome_saying_Nq8loZlpa_89_2.0.mp4'
p301
aS'./Master_Oogways_Awesome_saying_Nq8loZlpa_810_2.0.mp4'
p302
aS'./Master_Oogways_Awesome_saying_Nq8loZlpa_811_2.0.mp4'
p303
asF3.0
(lp304
S'./Despicable_Me_Gru_Sets_Some_Ground_Rules_CeOsRggJO4s25_3.0.mp4'
p305
aS'./Despicable_Me_Gru_Sets_Some_Ground_Rules_CeOsRggJO4s26_3.0.mp4'
p306
aS'./Despicable_Me_Gru_Sets_Some_Ground_Rules_CeOsRggJO4s27_3.0.mp4'
p307
aS'./Despicable_Me_Gru_Sets_Some_Ground_Rules_CeOsRggJO4s28_3.0.mp4'
p308
aS'./Cars_2006_movie_Clip_2_Wq42WBvIofU25_3.0.mp4'
p309
aS'./Cars_2006_movie_Clip_2_Wq42WBvIofU26_3.0.mp4'
p310
aS'./Cars_2006_movie_Clip_2_Wq42WBvIofU27_3.0.mp4'
p311
aS'./Cars_2006_movie_Clip_2_Wq42WBvIofU28_3.0.mp4'
p312
aS'./Master_Oogways_Awesome_saying_Nq8loZlpa_825_3.0.mp4'
p313
aS'./Master_Oogways_Awesome_saying_Nq8loZlpa_826_3.0.mp4'
p314
aS'./Master_Oogways_Awesome_saying_Nq8loZlpa_827_3.0.mp4'
p315
aS'./Master_Oogways_Awesome_saying_Nq8loZlpa_828_3.0.mp4'
p316
asF0.75
(lp317
S'./Cars_2006_movie_Clip_2_Wq42WBvIofU72_0.75.mp4'
p318
aS'./Cars_2006_movie_Clip_2_Wq42WBvIofU73_0.75.mp4'
p319
aS'./Cars_2006_movie_Clip_2_Wq42WBvIofU74_0.75.mp4'
p320
aS'./Cars_2006_movie_Clip_2_Wq42WBvIofU75_0.75.mp4'
p321
aS'./Cars_2006_movie_Clip_2_Wq42WBvIofU76_0.75.mp4'
p322
aS'./Cars_2006_movie_Clip_2_Wq42WBvIofU77_0.75.mp4'
p323
aS'./Cars_2006_movie_Clip_2_Wq42WBvIofU78_0.75.mp4'
p324
aS'./Cars_2006_movie_Clip_2_Wq42WBvIofU79_0.75.mp4'
p325
aS'./Cars_2006_movie_Clip_2_Wq42WBvIofU80_0.75.mp4'
p326
aS'./Cars_2006_movie_Clip_2_Wq42WBvIofU81_0.75.mp4'
p327
aS'./Cars_2006_movie_Clip_2_Wq42WBvIofU82_0.75.mp4'
p328
aS'./Cars_2006_movie_Clip_2_Wq42WBvIofU83_0.75.mp4'
p329
aS'./Cars_2006_movie_Clip_2_Wq42WBvIofU84_0.75.mp4'
p330
aS'./Cars_2006_movie_Clip_2_Wq42WBvIofU85_0.75.mp4'
p331
aS'./Cars_2006_movie_Clip_2_Wq42WBvIofU86_0.75.mp4'
p332
aS'./Cars_2006_movie_Clip_2_Wq42WBvIofU87_0.75.mp4'
p333
aS'./Master_Oogways_Awesome_saying_Nq8loZlpa_8135_0.75.mp4'
p334
aS'./Master_Oogways_Awesome_saying_Nq8loZlpa_8136_0.75.mp4'
p335
aS'./Master_Oogways_Awesome_saying_Nq8loZlpa_8137_0.75.mp4'
p336
aS'./Master_Oogways_Awesome_saying_Nq8loZlpa_8138_0.75.mp4'
p337
aS'./Master_Oogways_Awesome_saying_Nq8loZlpa_8139_0.75.mp4'
p338
aS'./Master_Oogways_Awesome_saying_Nq8loZlpa_8140_0.75.mp4'
p339
aS'./Master_Oogways_Awesome_saying_Nq8loZlpa_8141_0.75.mp4'
p340
aS'./Master_Oogways_Awesome_saying_Nq8loZlpa_8142_0.75.mp4'
p341
aS'./Master_Oogways_Awesome_saying_Nq8loZlpa_8143_0.75.mp4'
p342
aS'./Master_Oogways_Awesome_saying_Nq8loZlpa_8144_0.75.mp4'
p343
aS'./Master_Oogways_Awesome_saying_Nq8loZlpa_8145_0.75.mp4'
p344
aS'./Master_Oogways_Awesome_saying_Nq8loZlpa_8146_0.75.mp4'
p345
aS'./Master_Oogways_Awesome_saying_Nq8loZlpa_8147_0.75.mp4'
p346
aS'./Master_Oogways_Awesome_saying_Nq8loZlpa_8148_0.75.mp4'
p347
aS'./Master_Oogways_Awesome_saying_Nq8loZlpa_8149_0.75.mp4'
p348
aS'./Master_Oogways_Awesome_saying_Nq8loZlpa_8150_0.75.mp4'
p349
aS'./Master_Oogways_Awesome_saying_Nq8loZlpa_8151_0.75.mp4'
p350
aS'./Master_Oogways_Awesome_saying_Nq8loZlpa_8152_0.75.mp4'
p351
aS'./Master_Oogways_Awesome_saying_Nq8loZlpa_8153_0.75.mp4'
p352
aS'./Master_Oogways_Awesome_saying_Nq8loZlpa_8154_0.75.mp4'
p353
aS'./Master_Oogways_Awesome_saying_Nq8loZlpa_8155_0.75.mp4'
p354
aS'./Master_Oogways_Awesome_saying_Nq8loZlpa_8156_0.75.mp4'
p355
aS'./Master_Oogways_Awesome_saying_Nq8loZlpa_8157_0.75.mp4'
p356
aS'./Master_Oogways_Awesome_saying_Nq8loZlpa_8158_0.75.mp4'
p357
aS'./Master_Oogways_Awesome_saying_Nq8loZlpa_8159_0.75.mp4'
p358
aS'./Master_Oogways_Awesome_saying_Nq8loZlpa_8160_0.75.mp4'
p359
aS'./Master_Oogways_Awesome_saying_Nq8loZlpa_8161_0.75.mp4'
p360
aS'./Master_Oogways_Awesome_saying_Nq8loZlpa_8162_0.75.mp4'
p361
aS'./Master_Oogways_Awesome_saying_Nq8loZlpa_8163_0.75.mp4'
p362
aS'./Master_Oogways_Awesome_saying_Nq8loZlpa_8164_0.75.mp4'
p363
aS'./Despicable_Me_Gru_Sets_Some_Ground_Rules_CeOsRggJO4s75_0.75.mp4'
p364
aS'./Despicable_Me_Gru_Sets_Some_Ground_Rules_CeOsRggJO4s76_0.75.mp4'
p365
aS'./Despicable_Me_Gru_Sets_Some_Ground_Rules_CeOsRggJO4s77_0.75.mp4'
p366
aS'./Despicable_Me_Gru_Sets_Some_Ground_Rules_CeOsRggJO4s78_0.75.mp4'
p367
aS'./Despicable_Me_Gru_Sets_Some_Ground_Rules_CeOsRggJO4s79_0.75.mp4'
p368
aS'./Despicable_Me_Gru_Sets_Some_Ground_Rules_CeOsRggJO4s80_0.75.mp4'
p369
aS'./Despicable_Me_Gru_Sets_Some_Ground_Rules_CeOsRggJO4s81_0.75.mp4'
p370
aS'./Despicable_Me_Gru_Sets_Some_Ground_Rules_CeOsRggJO4s82_0.75.mp4'
p371
aS'./Despicable_Me_Gru_Sets_Some_Ground_Rules_CeOsRggJO4s83_0.75.mp4'
p372
aS'./Despicable_Me_Gru_Sets_Some_Ground_Rules_CeOsRggJO4s84_0.75.mp4'
p373
aS'./Despicable_Me_Gru_Sets_Some_Ground_Rules_CeOsRggJO4s85_0.75.mp4'
p374
aS'./Despicable_Me_Gru_Sets_Some_Ground_Rules_CeOsRggJO4s86_0.75.mp4'
p375
aS'./Despicable_Me_Gru_Sets_Some_Ground_Rules_CeOsRggJO4s87_0.75.mp4'
p376
aS'./Despicable_Me_Gru_Sets_Some_Ground_Rules_CeOsRggJO4s88_0.75.mp4'
p377
aS'./Despicable_Me_Gru_Sets_Some_Ground_Rules_CeOsRggJO4s89_0.75.mp4'
p378
aS'./Despicable_Me_Gru_Sets_Some_Ground_Rules_CeOsRggJO4s90_0.75.mp4'
p379
asF1.0
(lp380
S'./Cars_2006_movie_Clip_2_Wq42WBvIofU88_1.0.mp4'
p381
aS'./Cars_2006_movie_Clip_2_Wq42WBvIofU89_1.0.mp4'
p382
aS'./Cars_2006_movie_Clip_2_Wq42WBvIofU90_1.0.mp4'
p383
aS'./Cars_2006_movie_Clip_2_Wq42WBvIofU91_1.0.mp4'
p384
aS'./Cars_2006_movie_Clip_2_Wq42WBvIofU92_1.0.mp4'
p385
aS'./Cars_2006_movie_Clip_2_Wq42WBvIofU93_1.0.mp4'
p386
aS'./Cars_2006_movie_Clip_2_Wq42WBvIofU94_1.0.mp4'
p387
aS'./Cars_2006_movie_Clip_2_Wq42WBvIofU95_1.0.mp4'
p388
aS'./Cars_2006_movie_Clip_2_Wq42WBvIofU96_1.0.mp4'
p389
aS'./Cars_2006_movie_Clip_2_Wq42WBvIofU97_1.0.mp4'
p390
aS'./Cars_2006_movie_Clip_2_Wq42WBvIofU98_1.0.mp4'
p391
aS'./Cars_2006_movie_Clip_2_Wq42WBvIofU99_1.0.mp4'
p392
aS'./Master_Oogways_Awesome_saying_Nq8loZlpa_8165_1.0.mp4'
p393
aS'./Master_Oogways_Awesome_saying_Nq8loZlpa_8166_1.0.mp4'
p394
aS'./Master_Oogways_Awesome_saying_Nq8loZlpa_8167_1.0.mp4'
p395
aS'./Master_Oogways_Awesome_saying_Nq8loZlpa_8168_1.0.mp4'
p396
aS'./Master_Oogways_Awesome_saying_Nq8loZlpa_8169_1.0.mp4'
p397
aS'./Master_Oogways_Awesome_saying_Nq8loZlpa_8170_1.0.mp4'
p398
aS'./Master_Oogways_Awesome_saying_Nq8loZlpa_8171_1.0.mp4'
p399
aS'./Master_Oogways_Awesome_saying_Nq8loZlpa_8172_1.0.mp4'
p400
aS'./Master_Oogways_Awesome_saying_Nq8loZlpa_8173_1.0.mp4'
p401
aS'./Master_Oogways_Awesome_saying_Nq8loZlpa_8174_1.0.mp4'
p402
aS'./Master_Oogways_Awesome_saying_Nq8loZlpa_8175_1.0.mp4'
p403
aS'./Master_Oogways_Awesome_saying_Nq8loZlpa_8176_1.0.mp4'
p404
aS'./Master_Oogways_Awesome_saying_Nq8loZlpa_8177_1.0.mp4'
p405
aS'./Master_Oogways_Awesome_saying_Nq8loZlpa_8178_1.0.mp4'
p406
aS'./Master_Oogways_Awesome_saying_Nq8loZlpa_8179_1.0.mp4'
p407
aS'./Master_Oogways_Awesome_saying_Nq8loZlpa_8180_1.0.mp4'
p408
aS'./Master_Oogways_Awesome_saying_Nq8loZlpa_8181_1.0.mp4'
p409
aS'./Master_Oogways_Awesome_saying_Nq8loZlpa_8182_1.0.mp4'
p410
aS'./Master_Oogways_Awesome_saying_Nq8loZlpa_8183_1.0.mp4'
p411
aS'./Master_Oogways_Awesome_saying_Nq8loZlpa_8184_1.0.mp4'
p412
aS'./Master_Oogways_Awesome_saying_Nq8loZlpa_8185_1.0.mp4'
p413
aS'./Master_Oogways_Awesome_saying_Nq8loZlpa_8186_1.0.mp4'
p414
aS'./Despicable_Me_Gru_Sets_Some_Ground_Rules_CeOsRggJO4s91_1.0.mp4'
p415
aS'./Despicable_Me_Gru_Sets_Some_Ground_Rules_CeOsRggJO4s92_1.0.mp4'
p416
aS'./Despicable_Me_Gru_Sets_Some_Ground_Rules_CeOsRggJO4s93_1.0.mp4'
p417
aS'./Despicable_Me_Gru_Sets_Some_Ground_Rules_CeOsRggJO4s94_1.0.mp4'
p418
aS'./Despicable_Me_Gru_Sets_Some_Ground_Rules_CeOsRggJO4s95_1.0.mp4'
p419
aS'./Despicable_Me_Gru_Sets_Some_Ground_Rules_CeOsRggJO4s96_1.0.mp4'
p420
aS'./Despicable_Me_Gru_Sets_Some_Ground_Rules_CeOsRggJO4s97_1.0.mp4'
p421
aS'./Despicable_Me_Gru_Sets_Some_Ground_Rules_CeOsRggJO4s98_1.0.mp4'
p422
aS'./Despicable_Me_Gru_Sets_Some_Ground_Rules_CeOsRggJO4s99_1.0.mp4'
p423
aS'./Despicable_Me_Gru_Sets_Some_Ground_Rules_CeOsRggJO4s100_1.0.mp4'
p424
aS'./Despicable_Me_Gru_Sets_Some_Ground_Rules_CeOsRggJO4s101_1.0.mp4'
p425
aS'./Despicable_Me_Gru_Sets_Some_Ground_Rules_CeOsRggJO4s102_1.0.mp4'
p426
asF2.75
(lp427
S'./Despicable_Me_Gru_Sets_Some_Ground_Rules_CeOsRggJO4s21_2.75.mp4'
p428
aS'./Despicable_Me_Gru_Sets_Some_Ground_Rules_CeOsRggJO4s22_2.75.mp4'
p429
aS'./Despicable_Me_Gru_Sets_Some_Ground_Rules_CeOsRggJO4s23_2.75.mp4'
p430
aS'./Despicable_Me_Gru_Sets_Some_Ground_Rules_CeOsRggJO4s24_2.75.mp4'
p431
aS'./Cars_2006_movie_Clip_2_Wq42WBvIofU21_2.75.mp4'
p432
aS'./Cars_2006_movie_Clip_2_Wq42WBvIofU22_2.75.mp4'
p433
aS'./Cars_2006_movie_Clip_2_Wq42WBvIofU23_2.75.mp4'
p434
aS'./Cars_2006_movie_Clip_2_Wq42WBvIofU24_2.75.mp4'
p435
aS'./Master_Oogways_Awesome_saying_Nq8loZlpa_821_2.75.mp4'
p436
aS'./Master_Oogways_Awesome_saying_Nq8loZlpa_822_2.75.mp4'
p437
aS'./Master_Oogways_Awesome_saying_Nq8loZlpa_823_2.75.mp4'
p438
aS'./Master_Oogways_Awesome_saying_Nq8loZlpa_824_2.75.mp4'
p439
asF1.75
(lp440
S'./Despicable_Me_Gru_Sets_Some_Ground_Rules_CeOsRggJO4s0_1.75.mp4'
p441
aS'./Despicable_Me_Gru_Sets_Some_Ground_Rules_CeOsRggJO4s1_1.75.mp4'
p442
aS'./Despicable_Me_Gru_Sets_Some_Ground_Rules_CeOsRggJO4s2_1.75.mp4'
p443
aS'./Despicable_Me_Gru_Sets_Some_Ground_Rules_CeOsRggJO4s3_1.75.mp4'
p444
aS'./Despicable_Me_Gru_Sets_Some_Ground_Rules_CeOsRggJO4s4_1.75.mp4'
p445
aS'./Despicable_Me_Gru_Sets_Some_Ground_Rules_CeOsRggJO4s5_1.75.mp4'
p446
aS'./Cars_2006_movie_Clip_2_Wq42WBvIofU0_1.75.mp4'
p447
aS'./Cars_2006_movie_Clip_2_Wq42WBvIofU1_1.75.mp4'
p448
aS'./Cars_2006_movie_Clip_2_Wq42WBvIofU2_1.75.mp4'
p449
aS'./Cars_2006_movie_Clip_2_Wq42WBvIofU3_1.75.mp4'
p450
aS'./Cars_2006_movie_Clip_2_Wq42WBvIofU4_1.75.mp4'
p451
aS'./Cars_2006_movie_Clip_2_Wq42WBvIofU5_1.75.mp4'
p452
aS'./Master_Oogways_Awesome_saying_Nq8loZlpa_80_1.75.mp4'
p453
aS'./Master_Oogways_Awesome_saying_Nq8loZlpa_81_1.75.mp4'
p454
aS'./Master_Oogways_Awesome_saying_Nq8loZlpa_82_1.75.mp4'
p455
aS'./Master_Oogways_Awesome_saying_Nq8loZlpa_83_1.75.mp4'
p456
aS'./Master_Oogways_Awesome_saying_Nq8loZlpa_84_1.75.mp4'
p457
aS'./Master_Oogways_Awesome_saying_Nq8loZlpa_85_1.75.mp4'
p458
asF2.5
(lp459
S'./Despicable_Me_Gru_Sets_Some_Ground_Rules_CeOsRggJO4s17_2.5.mp4'
p460
aS'./Despicable_Me_Gru_Sets_Some_Ground_Rules_CeOsRggJO4s18_2.5.mp4'
p461
aS'./Despicable_Me_Gru_Sets_Some_Ground_Rules_CeOsRggJO4s19_2.5.mp4'
p462
aS'./Despicable_Me_Gru_Sets_Some_Ground_Rules_CeOsRggJO4s20_2.5.mp4'
p463
aS'./Cars_2006_movie_Clip_2_Wq42WBvIofU17_2.5.mp4'
p464
aS'./Cars_2006_movie_Clip_2_Wq42WBvIofU18_2.5.mp4'
p465
aS'./Cars_2006_movie_Clip_2_Wq42WBvIofU19_2.5.mp4'
p466
aS'./Cars_2006_movie_Clip_2_Wq42WBvIofU20_2.5.mp4'
p467
aS'./Master_Oogways_Awesome_saying_Nq8loZlpa_817_2.5.mp4'
p468
aS'./Master_Oogways_Awesome_saying_Nq8loZlpa_818_2.5.mp4'
p469
aS'./Master_Oogways_Awesome_saying_Nq8loZlpa_819_2.5.mp4'
p470
aS'./Master_Oogways_Awesome_saying_Nq8loZlpa_820_2.5.mp4'
p471
asF1.5
(lp472
S'./Cars_2006_movie_Clip_2_Wq42WBvIofU109_1.5.mp4'
p473
aS'./Cars_2006_movie_Clip_2_Wq42WBvIofU110_1.5.mp4'
p474
aS'./Cars_2006_movie_Clip_2_Wq42WBvIofU111_1.5.mp4'
p475
aS'./Cars_2006_movie_Clip_2_Wq42WBvIofU112_1.5.mp4'
p476
aS'./Cars_2006_movie_Clip_2_Wq42WBvIofU113_1.5.mp4'
p477
aS'./Cars_2006_movie_Clip_2_Wq42WBvIofU114_1.5.mp4'
p478
aS'./Cars_2006_movie_Clip_2_Wq42WBvIofU115_1.5.mp4'
p479
aS'./Cars_2006_movie_Clip_2_Wq42WBvIofU116_1.5.mp4'
p480
aS'./Master_Oogways_Awesome_saying_Nq8loZlpa_8205_1.5.mp4'
p481
aS'./Master_Oogways_Awesome_saying_Nq8loZlpa_8206_1.5.mp4'
p482
aS'./Master_Oogways_Awesome_saying_Nq8loZlpa_8207_1.5.mp4'
p483
aS'./Master_Oogways_Awesome_saying_Nq8loZlpa_8208_1.5.mp4'
p484
aS'./Master_Oogways_Awesome_saying_Nq8loZlpa_8209_1.5.mp4'
p485
aS'./Master_Oogways_Awesome_saying_Nq8loZlpa_8210_1.5.mp4'
p486
aS'./Master_Oogways_Awesome_saying_Nq8loZlpa_8211_1.5.mp4'
p487
aS'./Master_Oogways_Awesome_saying_Nq8loZlpa_8212_1.5.mp4'
p488
aS'./Master_Oogways_Awesome_saying_Nq8loZlpa_8213_1.5.mp4'
p489
aS'./Master_Oogways_Awesome_saying_Nq8loZlpa_8214_1.5.mp4'
p490
aS'./Master_Oogways_Awesome_saying_Nq8loZlpa_8215_1.5.mp4'
p491
aS'./Master_Oogways_Awesome_saying_Nq8loZlpa_8216_1.5.mp4'
p492
aS'./Master_Oogways_Awesome_saying_Nq8loZlpa_8217_1.5.mp4'
p493
aS'./Master_Oogways_Awesome_saying_Nq8loZlpa_8218_1.5.mp4'
p494
aS'./Master_Oogways_Awesome_saying_Nq8loZlpa_8219_1.5.mp4'
p495
aS'./Despicable_Me_Gru_Sets_Some_Ground_Rules_CeOsRggJO4s113_1.5.mp4'
p496
aS'./Despicable_Me_Gru_Sets_Some_Ground_Rules_CeOsRggJO4s114_1.5.mp4'
p497
aS'./Despicable_Me_Gru_Sets_Some_Ground_Rules_CeOsRggJO4s115_1.5.mp4'
p498
aS'./Despicable_Me_Gru_Sets_Some_Ground_Rules_CeOsRggJO4s116_1.5.mp4'
p499
aS'./Despicable_Me_Gru_Sets_Some_Ground_Rules_CeOsRggJO4s117_1.5.mp4'
p500
aS'./Despicable_Me_Gru_Sets_Some_Ground_Rules_CeOsRggJO4s118_1.5.mp4'
p501
aS'./Despicable_Me_Gru_Sets_Some_Ground_Rules_CeOsRggJO4s119_1.5.mp4'
p502
aS'./Despicable_Me_Gru_Sets_Some_Ground_Rules_CeOsRggJO4s120_1.5.mp4'
p503
asF2.25
(lp504
S'./Despicable_Me_Gru_Sets_Some_Ground_Rules_CeOsRggJO4s12_2.25.mp4'
p505
aS'./Despicable_Me_Gru_Sets_Some_Ground_Rules_CeOsRggJO4s13_2.25.mp4'
p506
aS'./Despicable_Me_Gru_Sets_Some_Ground_Rules_CeOsRggJO4s14_2.25.mp4'
p507
aS'./Despicable_Me_Gru_Sets_Some_Ground_Rules_CeOsRggJO4s15_2.25.mp4'
p508
aS'./Despicable_Me_Gru_Sets_Some_Ground_Rules_CeOsRggJO4s16_2.25.mp4'
p509
aS'./Cars_2006_movie_Clip_2_Wq42WBvIofU12_2.25.mp4'
p510
aS'./Cars_2006_movie_Clip_2_Wq42WBvIofU13_2.25.mp4'
p511
aS'./Cars_2006_movie_Clip_2_Wq42WBvIofU14_2.25.mp4'
p512
aS'./Cars_2006_movie_Clip_2_Wq42WBvIofU15_2.25.mp4'
p513
aS'./Cars_2006_movie_Clip_2_Wq42WBvIofU16_2.25.mp4'
p514
aS'./Master_Oogways_Awesome_saying_Nq8loZlpa_812_2.25.mp4'
p515
aS'./Master_Oogways_Awesome_saying_Nq8loZlpa_813_2.25.mp4'
p516
aS'./Master_Oogways_Awesome_saying_Nq8loZlpa_814_2.25.mp4'
p517
aS'./Master_Oogways_Awesome_saying_Nq8loZlpa_815_2.25.mp4'
p518
aS'./Master_Oogways_Awesome_saying_Nq8loZlpa_816_2.25.mp4'
p519
asF1.25
(lp520
S'./Cars_2006_movie_Clip_2_Wq42WBvIofU100_1.25.mp4'
p521
aS'./Cars_2006_movie_Clip_2_Wq42WBvIofU101_1.25.mp4'
p522
aS'./Cars_2006_movie_Clip_2_Wq42WBvIofU102_1.25.mp4'
p523
aS'./Cars_2006_movie_Clip_2_Wq42WBvIofU103_1.25.mp4'
p524
aS'./Cars_2006_movie_Clip_2_Wq42WBvIofU104_1.25.mp4'
p525
aS'./Cars_2006_movie_Clip_2_Wq42WBvIofU105_1.25.mp4'
p526
aS'./Cars_2006_movie_Clip_2_Wq42WBvIofU106_1.25.mp4'
p527
aS'./Cars_2006_movie_Clip_2_Wq42WBvIofU107_1.25.mp4'
p528
aS'./Cars_2006_movie_Clip_2_Wq42WBvIofU108_1.25.mp4'
p529
aS'./Master_Oogways_Awesome_saying_Nq8loZlpa_8187_1.25.mp4'
p530
aS'./Master_Oogways_Awesome_saying_Nq8loZlpa_8188_1.25.mp4'
p531
aS'./Master_Oogways_Awesome_saying_Nq8loZlpa_8189_1.25.mp4'
p532
aS'./Master_Oogways_Awesome_saying_Nq8loZlpa_8190_1.25.mp4'
p533
aS'./Master_Oogways_Awesome_saying_Nq8loZlpa_8191_1.25.mp4'
p534
aS'./Master_Oogways_Awesome_saying_Nq8loZlpa_8192_1.25.mp4'
p535
aS'./Master_Oogways_Awesome_saying_Nq8loZlpa_8193_1.25.mp4'
p536
aS'./Master_Oogways_Awesome_saying_Nq8loZlpa_8194_1.25.mp4'
p537
aS'./Master_Oogways_Awesome_saying_Nq8loZlpa_8195_1.25.mp4'
p538
aS'./Master_Oogways_Awesome_saying_Nq8loZlpa_8196_1.25.mp4'
p539
aS'./Master_Oogways_Awesome_saying_Nq8loZlpa_8197_1.25.mp4'
p540
aS'./Master_Oogways_Awesome_saying_Nq8loZlpa_8198_1.25.mp4'
p541
aS'./Master_Oogways_Awesome_saying_Nq8loZlpa_8199_1.25.mp4'
p542
aS'./Master_Oogways_Awesome_saying_Nq8loZlpa_8200_1.25.mp4'
p543
aS'./Master_Oogways_Awesome_saying_Nq8loZlpa_8201_1.25.mp4'
p544
aS'./Master_Oogways_Awesome_saying_Nq8loZlpa_8202_1.25.mp4'
p545
aS'./Master_Oogways_Awesome_saying_Nq8loZlpa_8203_1.25.mp4'
p546
aS'./Master_Oogways_Awesome_saying_Nq8loZlpa_8204_1.25.mp4'
p547
aS'./Despicable_Me_Gru_Sets_Some_Ground_Rules_CeOsRggJO4s103_1.25.mp4'
p548
aS'./Despicable_Me_Gru_Sets_Some_Ground_Rules_CeOsRggJO4s104_1.25.mp4'
p549
aS'./Despicable_Me_Gru_Sets_Some_Ground_Rules_CeOsRggJO4s105_1.25.mp4'
p550
aS'./Despicable_Me_Gru_Sets_Some_Ground_Rules_CeOsRggJO4s106_1.25.mp4'
p551
aS'./Despicable_Me_Gru_Sets_Some_Ground_Rules_CeOsRggJO4s107_1.25.mp4'
p552
aS'./Despicable_Me_Gru_Sets_Some_Ground_Rules_CeOsRggJO4s108_1.25.mp4'
p553
aS'./Despicable_Me_Gru_Sets_Some_Ground_Rules_CeOsRggJO4s109_1.25.mp4'
p554
aS'./Despicable_Me_Gru_Sets_Some_Ground_Rules_CeOsRggJO4s110_1.25.mp4'
p555
aS'./Despicable_Me_Gru_Sets_Some_Ground_Rules_CeOsRggJO4s111_1.25.mp4'
p556
aS'./Despicable_Me_Gru_Sets_Some_Ground_Rules_CeOsRggJO4s112_1.25.mp4'
p557
as.