(dp0
F0.25
(lp1
S'./Cars_2006_movie_Clip_2_Wq42WBvIofU0_0.25.mp4'
p2
aS'./Cars_2006_movie_Clip_2_Wq42WBvIofU1_0.25.mp4'
p3
aS'./Cars_2006_movie_Clip_2_Wq42WBvIofU2_0.25.mp4'
p4
aS'./Cars_2006_movie_Clip_2_Wq42WBvIofU3_0.25.mp4'
p5
aS'./Cars_2006_movie_Clip_2_Wq42WBvIofU4_0.25.mp4'
p6
aS'./Cars_2006_movie_Clip_2_Wq42WBvIofU5_0.25.mp4'
p7
aS'./Cars_2006_movie_Clip_2_Wq42WBvIofU6_0.25.mp4'
p8
aS'./Cars_2006_movie_Clip_2_Wq42WBvIofU7_0.25.mp4'
p9
aS'./Cars_2006_movie_Clip_2_Wq42WBvIofU8_0.25.mp4'
p10
aS'./Cars_2006_movie_Clip_2_Wq42WBvIofU9_0.25.mp4'
p11
aS'./Cars_2006_movie_Clip_2_Wq42WBvIofU10_0.25.mp4'
p12
aS'./Cars_2006_movie_Clip_2_Wq42WBvIofU11_0.25.mp4'
p13
aS'./Cars_2006_movie_Clip_2_Wq42WBvIofU12_0.25.mp4'
p14
aS'./Cars_2006_movie_Clip_2_Wq42WBvIofU13_0.25.mp4'
p15
aS'./Cars_2006_movie_Clip_2_Wq42WBvIofU14_0.25.mp4'
p16
aS'./Cars_2006_movie_Clip_2_Wq42WBvIofU15_0.25.mp4'
p17
aS'./Cars_2006_movie_Clip_2_Wq42WBvIofU16_0.25.mp4'
p18
aS'./Cars_2006_movie_Clip_2_Wq42WBvIofU17_0.25.mp4'
p19
aS'./Cars_2006_movie_Clip_2_Wq42WBvIofU18_0.25.mp4'
p20
aS'./Cars_2006_movie_Clip_2_Wq42WBvIofU19_0.25.mp4'
p21
aS'./Cars_2006_movie_Clip_2_Wq42WBvIofU20_0.25.mp4'
p22
aS'./Cars_2006_movie_Clip_2_Wq42WBvIofU21_0.25.mp4'
p23
aS'./Cars_2006_movie_Clip_2_Wq42WBvIofU22_0.25.mp4'
p24
aS'./Cars_2006_movie_Clip_2_Wq42WBvIofU23_0.25.mp4'
p25
aS'./Cars_2006_movie_Clip_2_Wq42WBvIofU24_0.25.mp4'
p26
aS'./Cars_2006_movie_Clip_2_Wq42WBvIofU25_0.25.mp4'
p27
aS'./Cars_2006_movie_Clip_2_Wq42WBvIofU26_0.25.mp4'
p28
aS'./Cars_2006_movie_Clip_2_Wq42WBvIofU27_0.25.mp4'
p29
aS'./Cars_2006_movie_Clip_2_Wq42WBvIofU28_0.25.mp4'
p30
aS'./Cars_2006_movie_Clip_2_Wq42WBvIofU29_0.25.mp4'
p31
aS'./Cars_2006_movie_Clip_2_Wq42WBvIofU30_0.25.mp4'
p32
aS'./Cars_2006_movie_Clip_2_Wq42WBvIofU31_0.25.mp4'
p33
aS'./Cars_2006_movie_Clip_2_Wq42WBvIofU32_0.25.mp4'
p34
aS'./Cars_2006_movie_Clip_2_Wq42WBvIofU33_0.25.mp4'
p35
aS'./Cars_2006_movie_Clip_2_Wq42WBvIofU34_0.25.mp4'
p36
aS'./Cars_2006_movie_Clip_2_Wq42WBvIofU35_0.25.mp4'
p37
aS'./Cars_2006_movie_Clip_2_Wq42WBvIofU36_0.25.mp4'
p38
aS'./Cars_2006_movie_Clip_2_Wq42WBvIofU37_0.25.mp4'
p39
aS'./Cars_2006_movie_Clip_2_Wq42WBvIofU38_0.25.mp4'
p40
aS'./Cars_2006_movie_Clip_2_Wq42WBvIofU39_0.25.mp4'
p41
aS'./Cars_2006_movie_Clip_2_Wq42WBvIofU40_0.25.mp4'
p42
aS'./Cars_2006_movie_Clip_2_Wq42WBvIofU41_0.25.mp4'
p43
aS'./Cars_2006_movie_Clip_2_Wq42WBvIofU42_0.25.mp4'
p44
aS'./Cars_2006_movie_Clip_2_Wq42WBvIofU43_0.25.mp4'
p45
aS'./Cars_2006_movie_Clip_2_Wq42WBvIofU44_0.25.mp4'
p46
aS'./Cars_2006_movie_Clip_2_Wq42WBvIofU45_0.25.mp4'
p47
aS'./Cars_2006_movie_Clip_2_Wq42WBvIofU46_0.25.mp4'
p48
aS'./Cars_2006_movie_Clip_2_Wq42WBvIofU47_0.25.mp4'
p49
asF0.5
(lp50
S'./Cars_2006_movie_Clip_2_Wq42WBvIofU48_0.5.mp4'
p51
aS'./Cars_2006_movie_Clip_2_Wq42WBvIofU49_0.5.mp4'
p52
aS'./Cars_2006_movie_Clip_2_Wq42WBvIofU50_0.5.mp4'
p53
aS'./Cars_2006_movie_Clip_2_Wq42WBvIofU51_0.5.mp4'
p54
aS'./Cars_2006_movie_Clip_2_Wq42WBvIofU52_0.5.mp4'
p55
aS'./Cars_2006_movie_Clip_2_Wq42WBvIofU53_0.5.mp4'
p56
aS'./Cars_2006_movie_Clip_2_Wq42WBvIofU54_0.5.mp4'
p57
aS'./Cars_2006_movie_Clip_2_Wq42WBvIofU55_0.5.mp4'
p58
aS'./Cars_2006_movie_Clip_2_Wq42WBvIofU56_0.5.mp4'
p59
aS'./Cars_2006_movie_Clip_2_Wq42WBvIofU57_0.5.mp4'
p60
aS'./Cars_2006_movie_Clip_2_Wq42WBvIofU58_0.5.mp4'
p61
aS'./Cars_2006_movie_Clip_2_Wq42WBvIofU59_0.5.mp4'
p62
aS'./Cars_2006_movie_Clip_2_Wq42WBvIofU60_0.5.mp4'
p63
aS'./Cars_2006_movie_Clip_2_Wq42WBvIofU61_0.5.mp4'
p64
aS'./Cars_2006_movie_Clip_2_Wq42WBvIofU62_0.5.mp4'
p65
aS'./Cars_2006_movie_Clip_2_Wq42WBvIofU63_0.5.mp4'
p66
aS'./Cars_2006_movie_Clip_2_Wq42WBvIofU64_0.5.mp4'
p67
aS'./Cars_2006_movie_Clip_2_Wq42WBvIofU65_0.5.mp4'
p68
aS'./Cars_2006_movie_Clip_2_Wq42WBvIofU66_0.5.mp4'
p69
aS'./Cars_2006_movie_Clip_2_Wq42WBvIofU67_0.5.mp4'
p70
aS'./Cars_2006_movie_Clip_2_Wq42WBvIofU68_0.5.mp4'
p71
aS'./Cars_2006_movie_Clip_2_Wq42WBvIofU69_0.5.mp4'
p72
aS'./Cars_2006_movie_Clip_2_Wq42WBvIofU70_0.5.mp4'
p73
aS'./Cars_2006_movie_Clip_2_Wq42WBvIofU71_0.5.mp4'
p74
asF1.5
(lp75
S'./Cars_2006_movie_Clip_2_Wq42WBvIofU109_1.5.mp4'
p76
aS'./Cars_2006_movie_Clip_2_Wq42WBvIofU110_1.5.mp4'
p77
aS'./Cars_2006_movie_Clip_2_Wq42WBvIofU111_1.5.mp4'
p78
aS'./Cars_2006_movie_Clip_2_Wq42WBvIofU112_1.5.mp4'
p79
aS'./Cars_2006_movie_Clip_2_Wq42WBvIofU113_1.5.mp4'
p80
aS'./Cars_2006_movie_Clip_2_Wq42WBvIofU114_1.5.mp4'
p81
aS'./Cars_2006_movie_Clip_2_Wq42WBvIofU115_1.5.mp4'
p82
aS'./Cars_2006_movie_Clip_2_Wq42WBvIofU116_1.5.mp4'
p83
asF1.0
(lp84
S'./Cars_2006_movie_Clip_2_Wq42WBvIofU88_1.0.mp4'
p85
aS'./Cars_2006_movie_Clip_2_Wq42WBvIofU89_1.0.mp4'
p86
aS'./Cars_2006_movie_Clip_2_Wq42WBvIofU90_1.0.mp4'
p87
aS'./Cars_2006_movie_Clip_2_Wq42WBvIofU91_1.0.mp4'
p88
aS'./Cars_2006_movie_Clip_2_Wq42WBvIofU92_1.0.mp4'
p89
aS'./Cars_2006_movie_Clip_2_Wq42WBvIofU93_1.0.mp4'
p90
aS'./Cars_2006_movie_Clip_2_Wq42WBvIofU94_1.0.mp4'
p91
aS'./Cars_2006_movie_Clip_2_Wq42WBvIofU95_1.0.mp4'
p92
aS'./Cars_2006_movie_Clip_2_Wq42WBvIofU96_1.0.mp4'
p93
aS'./Cars_2006_movie_Clip_2_Wq42WBvIofU97_1.0.mp4'
p94
aS'./Cars_2006_movie_Clip_2_Wq42WBvIofU98_1.0.mp4'
p95
aS'./Cars_2006_movie_Clip_2_Wq42WBvIofU99_1.0.mp4'
p96
asF0.75
(lp97
S'./Cars_2006_movie_Clip_2_Wq42WBvIofU72_0.75.mp4'
p98
aS'./Cars_2006_movie_Clip_2_Wq42WBvIofU73_0.75.mp4'
p99
aS'./Cars_2006_movie_Clip_2_Wq42WBvIofU74_0.75.mp4'
p100
aS'./Cars_2006_movie_Clip_2_Wq42WBvIofU75_0.75.mp4'
p101
aS'./Cars_2006_movie_Clip_2_Wq42WBvIofU76_0.75.mp4'
p102
aS'./Cars_2006_movie_Clip_2_Wq42WBvIofU77_0.75.mp4'
p103
aS'./Cars_2006_movie_Clip_2_Wq42WBvIofU78_0.75.mp4'
p104
aS'./Cars_2006_movie_Clip_2_Wq42WBvIofU79_0.75.mp4'
p105
aS'./Cars_2006_movie_Clip_2_Wq42WBvIofU80_0.75.mp4'
p106
aS'./Cars_2006_movie_Clip_2_Wq42WBvIofU81_0.75.mp4'
p107
aS'./Cars_2006_movie_Clip_2_Wq42WBvIofU82_0.75.mp4'
p108
aS'./Cars_2006_movie_Clip_2_Wq42WBvIofU83_0.75.mp4'
p109
aS'./Cars_2006_movie_Clip_2_Wq42WBvIofU84_0.75.mp4'
p110
aS'./Cars_2006_movie_Clip_2_Wq42WBvIofU85_0.75.mp4'
p111
aS'./Cars_2006_movie_Clip_2_Wq42WBvIofU86_0.75.mp4'
p112
aS'./Cars_2006_movie_Clip_2_Wq42WBvIofU87_0.75.mp4'
p113
asF1.25
(lp114
S'./Cars_2006_movie_Clip_2_Wq42WBvIofU100_1.25.mp4'
p115
aS'./Cars_2006_movie_Clip_2_Wq42WBvIofU101_1.25.mp4'
p116
aS'./Cars_2006_movie_Clip_2_Wq42WBvIofU102_1.25.mp4'
p117
aS'./Cars_2006_movie_Clip_2_Wq42WBvIofU103_1.25.mp4'
p118
aS'./Cars_2006_movie_Clip_2_Wq42WBvIofU104_1.25.mp4'
p119
aS'./Cars_2006_movie_Clip_2_Wq42WBvIofU105_1.25.mp4'
p120
aS'./Cars_2006_movie_Clip_2_Wq42WBvIofU106_1.25.mp4'
p121
aS'./Cars_2006_movie_Clip_2_Wq42WBvIofU107_1.25.mp4'
p122
aS'./Cars_2006_movie_Clip_2_Wq42WBvIofU108_1.25.mp4'
p123
as.